Certificate:
    Data:
        Version: 3 (0x2)
        Serial Number:
            78:a8:2a:9b:06:0d:ba:58:73:44:6a:99:c6:42:fe:21:1f:e0:d6:de
        Signature Algorithm: sha256WithRSAEncryption
        Issuer: CN=localhost
        Validity
            Not Before: May 18 13:18:50 2024 GMT
            Not After : Apr 24 13:18:50 2124 GMT
        Subject: CN=localhost
        Subject Public Key Info:
            Public Key Algorithm: rsaEncryption
                Public-Key: (2048 bit)
                Modulus:
                    00:aa:31:fa:9b:22:46:9e:72:a1:d4:c2:76:69:06:
                    ee:ea:e1:52:5e:6b:fc:14:25:49:4b:68:63:fb:da:
                    07:51:79:b1:c0:17:d5:f6:d3:42:8b:08:e0:ad:46:
                    c9:b7:cf:43:f4:a5:58:f8:e8:62:85:78:b9:a3:0d:
                    f3:d0:6e:d5:cb:34:66:6c:2d:66:70:99:6a:5a:62:
                    41:f3:5a:81:0d:53:e4:7e:f2:56:b6:2d:57:5f:f2:
                    39:48:9b:d6:86:95:76:19:9d:41:15:ec:2c:57:e0:
                    fe:b1:10:10:80:df:32:a6:e3:03:eb:f9:3c:66:ce:
                    4e:8b:cf:66:74:bf:63:6d:48:ff:86:4e:56:02:d2:
                    e4:07:00:47:c0:65:f8:69:7b:a8:50:2d:5b:62:20:
                    52:3c:94:81:c4:0f:c3:5b:1b:fc:b0:30:7c:a2:e3:
                    8f:85:1c:33:32:d1:af:af:05:2d:b9:85:a0:32:24:
                    0a:c9:6d:22:81:62:09:ca:9a:ae:31:75:71:96:de:
                    d6:3f:8c:14:e4:71:f7:03:2a:c8:05:06:46:70:15:
                    85:cb:29:a3:0a:fb:f4:e8:57:23:d1:c9:b4:e4:67:
                    01:5f:27:fe:03:7b:fe:49:75:1f:9d:a3:74:f1:a0:
                    8b:38:d9:52:2c:2c:21:66:c2:f3:27:af:e3:80:c6:
                    c9:e3
                Exponent: 65537 (0x10001)
        X509v3 extensions:
            X509v3 Subject Alternative Name: 
                DNS:localhost
            X509v3 Subject Key Identifier: 
                DA:EE:5D:7B:2E:7C:99:F5:90:84:0A:B9:73:E0:BA:FD:59:08:A3:A6
    Signature Algorithm: sha256WithRSAEncryption
    Signature Value:
        3d:fa:1a:41:58:44:5c:bc:c6:04:56:2c:2c:13:07:7b:56:62:
        c3:fa:0c:d8:9d:a5:bc:6a:c5:d5:f8:e6:52:8f:04:b0:4d:71:
        25:8c:48:1e:cc:bd:49:57:f2:9d:c3:db:89:73:7c:58:18:21:
        e5:b2:5d:a4:76:f8:91:69:94:ad:95:9c:33:2b:63:52:13:3e:
        b2:0a:62:e2:1a:09:ce:ea:57:d9:f5:75:03:34:9c:74:40:b8:
        e0:ad:7e:23:4c:7c:37:c7:1e:50:92:fe:c6:39:20:39:0c:6b:
        51:98:48:13:62:5a:5b:58:b8:3b:99:32:e3:43:11:41:d3:40:
        94:92:56:51:2c:9a:89:b4:8a:5e:db:5b:9b:3e:55:c3:fd:a3:
        b3:84:50:69:d4:11:fc:23:eb:af:2e:0f:8a:de:45:6a:05:53:
        8d:ff:c5:81:0d:d0:ea:8e:65:67:43:83:b8:ac:a2:bd:84:3f:
        c4:cf:58:96:9b:30:2e:09:f4:3c:52:9b:df:0e:fc:19:53:68:
        cb:33:16:5d:f5:88:f3:1a:38:e1:60:7e:5d:ca:d5:c4:da:67:
        56:98:28:42:eb:b2:79:d3:81:4c:35:57:10:b2:01:73:a8:38:
        0c:d7:b6:b9:6c:fc:72:e8:4e:11:62:fb:08:ce:86:b5:fe:65:
        89:66:93:87
-----BEGIN CERTIFICATE-----
MIIC7zCCAdegAwIBAgIUeKgqmwYNulhzRGqZxkL+IR/g1t4wDQYJKoZIhvcNAQEL
BQAwFDESMBAGA1UEAwwJbG9jYWxob3N0MCAXDTI0MDUxODEzMTg1MFoYDzIxMjQw
NDI0MTMxODUwWjAUMRIwEAYDVQQDDAlsb2NhbGhvc3QwggEiMA0GCSqGSIb3DQEB
AQUAA4IBDwAwggEKAoIBAQCqMfqbIkaecqHUwnZpBu7q4VJea/wUJUlLaGP72gdR
ebHAF9X200KLCOCtRsm3z0P0pVj46GKFeLmjDfPQbtXLNGZsLWZwmWpaYkHzWoEN
U+R+8la2LVdf8jlIm9aGlXYZnUEV7CxX4P6xEBCA3zKm4wPr+Txmzk6Lz2Z0v2Nt
SP+GTlYC0uQHAEfAZfhpe6hQLVtiIFI8lIHED8NbG/ywMHyi44+FHDMy0a+vBS25
haAyJArJbSKBYgnKmq4xdXGW3tY/jBTkcfcDKsgFBkZwFYXLKaMK+/ToVyPRybTk
ZwFfJ/4De/5JdR+do3TxoIs42VIsLCFmwvMnr+OAxsnjAgMBAAGjNzA1MBQGA1Ud
EQQNMAuCCWxvY2FsaG9zdDAdBgNVHQ4EFgQU2u5dey58mfWQhAq5c+C6/VkIo6Yw
DQYJKoZIhvcNAQELBQADggEBAD36GkFYRFy8xgRWLCwTB3tWYsP6DNidpbxqxdX4
5lKPBLBNcSWMSB7MvUlX8p3D24lzfFgYIeWyXaR2+JFplK2VnDMrY1ITPrIKYuIa
Cc7qV9n1dQM0nHRAuOCtfiNMfDfHHlCS/sY5IDkMa1GYSBNiWltYuDuZMuNDEUHT
QJSSVlEsmom0il7bW5s+VcP9o7OEUGnUEfwj668uD4reRWoFU43/xYEN0OqOZWdD
g7isor2EP8TPWJabMC4J9DxSm98O/BlTaMszFl31iPMaOOFgfl3K1cTaZ1aYKELr
snnTgUw1VxCyAXOoOAzXtrls/HLoThFi+wjOhrX+ZYlmk4c=
-----END CERTIFICATE-----
