Certificate:
    Data:
        Version: 3 (0x2)
        Serial Number:
            09:ae:ef:14:04:aa:83:51:42:19:0a:b5:ba:33:33:b5:f9:b0:41:20
        Signature Algorithm: sha256WithRSAEncryption
        Issuer: CN=dbhost.yourdomain.com
        Validity
            Not Before: May 14 14:50:18 2024 GMT
            Not After : May 14 14:50:18 2025 GMT
        Subject: CN=dbhost.yourdomain.com
        Subject Public Key Info:
            Public Key Algorithm: rsaEncryption
                Public-Key: (2048 bit)
                Modulus:
                    00:a6:69:53:d1:f9:03:45:10:df:70:70:34:3b:50:
                    a6:0b:2e:c9:ac:39:f9:93:a2:65:5b:13:12:b3:24:
                    fc:e1:2c:8f:da:55:9d:c0:53:90:4f:87:a8:85:b8:
                    95:ff:7e:30:30:50:9d:a1:b0:3d:82:5b:05:80:16:
                    f5:53:6a:90:bd:6b:e2:7b:51:f4:82:1f:04:8a:bc:
                    d9:a3:da:67:4f:44:7d:e5:de:0c:c9:22:31:fd:31:
                    ee:7b:00:de:e3:aa:c8:c5:66:58:28:70:2c:0f:d4:
                    0a:85:1c:b5:63:1a:ac:2b:35:26:bf:2c:bf:48:f0:
                    f4:24:f7:5c:8d:2a:53:31:ce:03:14:12:49:2a:3a:
                    7b:92:24:c5:b9:df:32:40:86:f1:29:d9:7f:5d:37:
                    46:6b:79:ee:29:f4:d9:b8:bd:7e:21:ee:73:f6:70:
                    8e:e0:da:e5:b6:8f:6c:75:dd:d9:be:71:31:36:9e:
                    8e:2c:f9:98:a7:cb:c1:b1:c8:c8:ee:a6:da:0c:24:
                    93:de:1a:df:6f:c0:55:f4:0f:90:5b:7d:b9:29:f5:
                    22:4a:57:2b:40:66:55:e3:9c:9c:25:9b:02:65:08:
                    1d:47:9d:a3:5b:01:d1:c5:01:65:ed:2d:7a:b1:90:
                    66:ae:41:f5:71:20:7d:23:60:b3:10:39:f4:94:e5:
                    bb:b1
                Exponent: 65537 (0x10001)
        X509v3 extensions:
            X509v3 Subject Key Identifier: 
                E7:CD:32:72:D1:8C:55:D0:31:63:66:53:1B:F6:AC:8D:1A:E2:44:D4
            X509v3 Authority Key Identifier: 
                E7:CD:32:72:D1:8C:55:D0:31:63:66:53:1B:F6:AC:8D:1A:E2:44:D4
            X509v3 Basic Constraints: critical
                CA:TRUE
    Signature Algorithm: sha256WithRSAEncryption
    Signature Value:
        9e:99:29:d4:02:05:4d:59:0f:72:11:8c:ea:58:0c:46:c0:c3:
        20:2c:01:ac:50:37:8c:a5:bc:a5:bb:0f:aa:88:df:8f:47:af:
        0c:de:24:9c:b9:dc:a6:9d:db:92:06:58:9d:02:66:6c:51:2e:
        fe:f1:93:23:1c:46:cb:d3:6d:f5:51:35:9a:6b:a4:82:9f:7a:
        16:af:1a:65:6b:a1:0c:94:78:c4:77:20:aa:ab:ee:22:78:3c:
        27:1e:67:e0:c9:b3:b3:31:cc:6a:cc:9d:ca:0d:f7:8f:32:1c:
        6e:f4:ba:5b:04:3d:2f:fb:55:fc:42:64:64:08:7d:bf:12:99:
        8a:17:df:3c:a0:a8:67:ac:69:98:0e:c9:68:2e:c1:b2:03:ee:
        56:b5:b2:22:a3:f5:3d:9c:6a:66:32:90:e4:a8:90:3f:14:5c:
        c0:3a:a3:11:e1:36:24:1e:0a:72:d8:57:cf:e7:83:43:e3:c1:
        1b:72:9b:31:87:01:b5:44:eb:cf:7c:50:3a:29:c5:dd:ca:57:
        50:9e:40:4a:cf:ce:3b:42:b8:63:70:c9:e4:15:6f:de:e0:1a:
        03:45:0f:1b:5a:c8:e0:03:0e:1a:b5:07:0b:1a:34:29:91:ad:
        c3:ae:e6:1b:bb:ac:8c:45:08:71:b6:e8:fd:4d:47:4a:7d:f2:
        75:f5:83:ca
-----BEGIN CERTIFICATE-----
MIIDITCCAgmgAwIBAgIUCa7vFASqg1FCGQq1ujMztfmwQSAwDQYJKoZIhvcNAQEL
BQAwIDEeMBwGA1UEAwwVZGJob3N0LnlvdXJkb21haW4uY29tMB4XDTI0MDUxNDE0
NTAxOFoXDTI1MDUxNDE0NTAxOFowIDEeMBwGA1UEAwwVZGJob3N0LnlvdXJkb21h
aW4uY29tMIIBIjANBgkqhkiG9w0BAQEFAAOCAQ8AMIIBCgKCAQEApmlT0fkDRRDf
cHA0O1CmCy7JrDn5k6JlWxMSsyT84SyP2lWdwFOQT4eohbiV/34wMFCdobA9glsF
gBb1U2qQvWvie1H0gh8EirzZo9pnT0R95d4MySIx/THuewDe46rIxWZYKHAsD9QK
hRy1YxqsKzUmvyy/SPD0JPdcjSpTMc4DFBJJKjp7kiTFud8yQIbxKdl/XTdGa3nu
KfTZuL1+Ie5z9nCO4Nrlto9sdd3ZvnExNp6OLPmYp8vBscjI7qbaDCST3hrfb8BV
9A+QW325KfUiSlcrQGZV45ycJZsCZQgdR52jWwHRxQFl7S16sZBmrkH1cSB9I2Cz
EDn0lOW7sQIDAQABo1MwUTAdBgNVHQ4EFgQU580yctGMVdAxY2ZTG/asjRriRNQw
HwYDVR0jBBgwFoAU580yctGMVdAxY2ZTG/asjRriRNQwDwYDVR0TAQH/BAUwAwEB
/zANBgkqhkiG9w0BAQsFAAOCAQEAnpkp1AIFTVkPchGM6lgMRsDDICwBrFA3jKW8
pbsPqojfj0evDN4knLncpp3bkgZYnQJmbFEu/vGTIxxGy9Nt9VE1mmukgp96Fq8a
ZWuhDJR4xHcgqqvuIng8Jx5n4MmzszHMasydyg33jzIcbvS6WwQ9L/tV/EJkZAh9
vxKZihffPKCoZ6xpmA7JaC7BsgPuVrWyIqP1PZxqZjKQ5KiQPxRcwDqjEeE2JB4K
cthXz+eDQ+PBG3KbMYcBtUTrz3xQOinF3cpXUJ5ASs/OO0K4Y3DJ5BVv3uAaA0UP
G1rI4AMOGrUHCxo0KZGtw67mG7usjEUIcbbo/U1HSn3ydfWDyg==
-----END CERTIFICATE-----
