Certificate:
    Data:
        Version: 3 (0x2)
        Serial Number:
            78:bf:4d:77:c6:e7:aa:fa:33:33:c5:cc:5a:51:5b:3b:46:b4:79:45
        Signature Algorithm: sha256WithRSAEncryption
        Issuer: CN=dbhost.yourdomain.com
        Validity
            Not Before: May 14 14:46:06 2024 GMT
            Not After : May 14 14:46:06 2025 GMT
        Subject: CN=dbhost.yourdomain.com
        Subject Public Key Info:
            Public Key Algorithm: rsaEncryption
                Public-Key: (2048 bit)
                Modulus:
                    00:c0:5d:f6:f0:c6:d9:0e:9e:d6:85:10:8c:c0:0f:
                    dc:3e:32:0d:09:e1:0f:bc:57:73:02:53:39:95:11:
                    83:4e:ca:ae:28:4a:c7:c1:88:d5:2c:91:a2:b0:08:
                    e7:58:f1:8e:41:5f:93:c7:df:59:64:af:bf:1d:b5:
                    14:a7:76:b0:5b:d2:ee:51:e1:86:30:ec:30:11:14:
                    53:7a:78:96:d8:aa:cd:f2:71:cc:01:3b:ee:75:fb:
                    ab:c9:67:2b:27:4f:ef:02:64:a1:28:6a:b6:b3:61:
                    7b:19:fb:64:52:9b:c4:ec:c6:c3:d0:dd:40:db:5d:
                    f7:28:5b:ef:d3:4d:0e:72:3d:7f:5d:6c:51:c9:1e:
                    3e:03:26:94:aa:c6:d3:94:f8:9e:56:4e:cc:f1:14:
                    07:89:d7:7a:cf:7b:da:e4:c4:b7:57:2b:30:8e:e1:
                    ac:d7:68:b3:61:b5:95:ee:2d:e1:a1:52:47:4b:79:
                    43:b2:e7:1b:67:d3:11:fa:00:e7:12:8d:b9:0f:b8:
                    69:7c:86:6b:71:a6:bc:32:af:04:9f:47:f7:6c:06:
                    f6:ee:cb:a8:82:9f:b2:93:68:18:f2:6c:a0:68:de:
                    e8:d3:36:04:08:11:15:df:f2:9d:94:06:ab:0c:47:
                    a0:74:d2:69:47:6d:b9:a8:96:c7:7d:04:f8:76:af:
                    1e:f1
                Exponent: 65537 (0x10001)
        X509v3 extensions:
            X509v3 Subject Key Identifier: 
                4B:DD:6D:9E:74:A7:2C:40:CE:58:A2:04:B0:1C:9A:28:8D:9A:52:6D
            X509v3 Authority Key Identifier: 
                4B:DD:6D:9E:74:A7:2C:40:CE:58:A2:04:B0:1C:9A:28:8D:9A:52:6D
            X509v3 Basic Constraints: critical
                CA:TRUE
    Signature Algorithm: sha256WithRSAEncryption
    Signature Value:
        90:52:e5:b3:e2:9b:94:9a:5e:26:f9:d7:33:0a:07:a3:6b:12:
        2f:ed:28:a8:e1:58:1d:60:2e:d3:0a:a9:95:cf:37:22:8c:6a:
        98:e3:2b:2b:6c:f3:5e:c0:48:a4:24:ff:00:13:5d:8a:c1:a8:
        a4:df:e4:e5:15:4e:75:b8:1b:1c:6f:3c:79:6d:22:e3:f8:01:
        79:a5:ed:22:c7:9c:60:aa:71:d7:70:be:0b:0e:34:7a:5a:f1:
        c8:ef:52:a6:5f:ac:a5:84:30:fc:ba:bd:75:31:10:30:ab:e4:
        58:ad:cb:a5:c8:de:d3:75:c4:68:44:4b:56:d8:f8:5d:b1:be:
        40:f9:b2:0f:55:23:c3:9d:2d:9e:8b:b2:dd:f5:ed:a6:44:ca:
        4f:3a:0d:89:e0:a0:4b:7c:40:a4:07:16:3e:29:2e:24:29:ee:
        a5:3d:f6:7a:88:c6:75:99:0b:44:00:43:ba:e8:a3:c1:53:9c:
        d6:41:2d:48:e5:86:6b:bd:0e:16:5a:19:3b:85:5a:4e:06:8f:
        db:13:0a:cb:23:96:29:a0:1f:6c:38:e0:7f:3f:18:d1:a6:d9:
        b5:1f:ea:c3:d3:8f:b2:3d:6a:19:ec:9d:2d:9d:7a:46:a9:00:
        a9:a7:d0:5b:51:fe:04:8b:9f:9d:40:2b:c2:30:ff:5b:42:95:
        46:72:c9:0d
-----BEGIN CERTIFICATE-----
MIIDITCCAgmgAwIBAgIUeL9Nd8bnqvozM8XMWlFbO0a0eUUwDQYJKoZIhvcNAQEL
BQAwIDEeMBwGA1UEAwwVZGJob3N0LnlvdXJkb21haW4uY29tMB4XDTI0MDUxNDE0
NDYwNloXDTI1MDUxNDE0NDYwNlowIDEeMBwGA1UEAwwVZGJob3N0LnlvdXJkb21h
aW4uY29tMIIBIjANBgkqhkiG9w0BAQEFAAOCAQ8AMIIBCgKCAQEAwF328MbZDp7W
hRCMwA/cPjINCeEPvFdzAlM5lRGDTsquKErHwYjVLJGisAjnWPGOQV+Tx99ZZK+/
HbUUp3awW9LuUeGGMOwwERRTeniW2KrN8nHMATvudfuryWcrJ0/vAmShKGq2s2F7
GftkUpvE7MbD0N1A2133KFvv000Ocj1/XWxRyR4+AyaUqsbTlPieVk7M8RQHidd6
z3va5MS3VyswjuGs12izYbWV7i3hoVJHS3lDsucbZ9MR+gDnEo25D7hpfIZrcaa8
Mq8En0f3bAb27suogp+yk2gY8mygaN7o0zYECBEV3/KdlAarDEegdNJpR225qJbH
fQT4dq8e8QIDAQABo1MwUTAdBgNVHQ4EFgQUS91tnnSnLEDOWKIEsByaKI2aUm0w
HwYDVR0jBBgwFoAUS91tnnSnLEDOWKIEsByaKI2aUm0wDwYDVR0TAQH/BAUwAwEB
/zANBgkqhkiG9w0BAQsFAAOCAQEAkFLls+KblJpeJvnXMwoHo2sSL+0oqOFYHWAu
0wqplc83IoxqmOMrK2zzXsBIpCT/ABNdisGopN/k5RVOdbgbHG88eW0i4/gBeaXt
IsecYKpx13C+Cw40elrxyO9Spl+spYQw/Lq9dTEQMKvkWK3Lpcje03XEaERLVtj4
XbG+QPmyD1Ujw50tnouy3fXtpkTKTzoNieCgS3xApAcWPikuJCnupT32eojGdZkL
RABDuuijwVOc1kEtSOWGa70OFloZO4VaTgaP2xMKyyOWKaAfbDjgfz8Y0abZtR/q
w9OPsj1qGeydLZ16RqkAqafQW1H+BIufnUArwjD/W0KVRnLJDQ==
-----END CERTIFICATE-----
