-----BEGIN PRIVATE KEY-----
MIIEvwIBADANBgkqhkiG9w0BAQEFAASCBKkwggSlAgEAAoIBAQDQ1xV9WAl8uE+6
3O2OOwmYbXeJ7H9+NR3CClmULT9n955hrQwjIojcLfFFsBJ4zC3dTwKXPHFWTrrj
L4LyarXbPbRBywMpSLaja0X/oounrd5PEmocEw41scITOwr8eVJh1lvOL7kJHKFD
K8e8Lo31VOIqMbM7l5w5lIUWhArCcqiD5L98xFARSmb2ffb+0/44SAo5mz//ln+a
49DLYoS3DHjgX6fOEceVuLy4W6NdAIgbBtMEog8Q9RZELe47SdDCrrHDS0jYcTeA
ahhMDh8OQLR3X7Uins4lsKUpB32c1xYS0qKxljHFZbvwaYw5RXgRS01aKDcTv5BP
NWvBQJPNAgMBAAECggEAMBPsAxSy7m8CD+tPlyhZP6mn1O1ItpXk2WiHkdjO2ZEE
eckcW7RWHJZJDrmHrx6WSnYniwijsPJkDOxBsaxGXIg6iNEDU8xFG58VGNJjY0Fg
RgTfv8HVSiA3pTS5BUGq6RIvxWpwJzxblbqs+1IeZUXa4Uraz9PJ5+mcr//K+FOB
Hw1XXyPbQ7Uq/7rqMwGIvOQUptEZJjH4x2U7VYE7GSvIKKpusWnAy6M5cauJaftY
aLLcahYmDI+vh+dLzErK3g1Xocr/08W885A7R8mBPzZ5OIQkbiPcp41PMWX+huMV
qRckSCUToyqy4w+tRaTlgif6rmmNkKhbYnCso6YfMQKBgQD/qeaTSCN8NZHM/BxU
iqzbvR77Eq5SRgvFzNWfE/jFw4eC4JhqCpAl9kxZmsTa8HC5JziUnRlddg1cLWYh
7dKXw2ccxmUFRsVMa2liJlQNYopKnshjNxSvX+sYLZet6Z/jQtVePFjSm96PKiT2
J/wjF+poSxLQDff8FLSLEfW3RQKBgQDRHWojrfxaV9UYX0F5OTyyTO0wHzwiZV8i
4StblrTtkCrH0oyjI8gt8FvifD5auBshx4YcuXYcojsyqO0UxSVRILyA0cpzrSH1
bV4NrMSQHmbjFJL+gIt4/b+q0Pr9dJgvW0fKquKu4Xo+nr2YFve/qoNMrIgC1VI6
0hvVcCsO6QKBgQCoR6umK+h3fEcwtozrNLAcnroCpsQpEUP0eSPu5lVrzoymn7CS
s8s3wYt1u0JxnauEo4VBhLpKY0bd8l/0WzavgAWh0hByTafV6ileWj4e5UqDXUom
y/2IhckXjAL3jPwZuUb6FRyd28y9TQ8xGxaB/t7isO98FIWy3eoMU9D5RQKBgQC7
wxqTcNx+zhCjspwaWb9bJWFvbQxUogr7SYzhzv8js+gFxdLLhQxv2zrVsNNYJ6kM
+pc74XbhHPXkdfNyS9ZG8wru6/BJT3KHaS0jQDa6ZOHjEY0vAYK6H7VijgRfYbpo
AyECI9AoUIKwCV6ZWj4YFeWRCfWR/bK46AFf8zhmSQKBgQCoE/lbHlEimjQIrzzo
AzQDZyOVFIhX3GqBrLXKaQVcpWvWjDv5f8aFIfgAXLTirReWNelTIxTE8SJqnPbH
IPz8QRT00GtZGb1Gf3LAA4dDWTHIa1Ki2zNdPOP2qWP2oXq0qrqEtxT5MPfVHGbO
/H3nGtvV21jS60CTJuSWPDxwOQ==
-----END PRIVATE KEY-----
Certificate:
    Data:
        Version: 3 (0x2)
        Serial Number:
            2e:0a:d3:de:1a:a5:a2:3b:85:cf:0d:34:7c:02:96:c9:03:bf:d2:56
        Signature Algorithm: sha256WithRSAEncryption
        Issuer: CN=localhost
        Validity
            Not Before: May 21 14:33:25 2024 GMT
            Not After : Apr 27 14:33:25 2124 GMT
        Subject: CN=localhost
        Subject Public Key Info:
            Public Key Algorithm: rsaEncryption
                Public-Key: (2048 bit)
                Modulus:
                    00:d0:d7:15:7d:58:09:7c:b8:4f:ba:dc:ed:8e:3b:
                    09:98:6d:77:89:ec:7f:7e:35:1d:c2:0a:59:94:2d:
                    3f:67:f7:9e:61:ad:0c:23:22:88:dc:2d:f1:45:b0:
                    12:78:cc:2d:dd:4f:02:97:3c:71:56:4e:ba:e3:2f:
                    82:f2:6a:b5:db:3d:b4:41:cb:03:29:48:b6:a3:6b:
                    45:ff:a2:8b:a7:ad:de:4f:12:6a:1c:13:0e:35:b1:
                    c2:13:3b:0a:fc:79:52:61:d6:5b:ce:2f:b9:09:1c:
                    a1:43:2b:c7:bc:2e:8d:f5:54:e2:2a:31:b3:3b:97:
                    9c:39:94:85:16:84:0a:c2:72:a8:83:e4:bf:7c:c4:
                    50:11:4a:66:f6:7d:f6:fe:d3:fe:38:48:0a:39:9b:
                    3f:ff:96:7f:9a:e3:d0:cb:62:84:b7:0c:78:e0:5f:
                    a7:ce:11:c7:95:b8:bc:b8:5b:a3:5d:00:88:1b:06:
                    d3:04:a2:0f:10:f5:16:44:2d:ee:3b:49:d0:c2:ae:
                    b1:c3:4b:48:d8:71:37:80:6a:18:4c:0e:1f:0e:40:
                    b4:77:5f:b5:22:9e:ce:25:b0:a5:29:07:7d:9c:d7:
                    16:12:d2:a2:b1:96:31:c5:65:bb:f0:69:8c:39:45:
                    78:11:4b:4d:5a:28:37:13:bf:90:4f:35:6b:c1:40:
                    93:cd
                Exponent: 65537 (0x10001)
        X509v3 extensions:
            X509v3 Subject Alternative Name: 
                DNS:localhost
            X509v3 Subject Key Identifier: 
                AD:AC:2B:9B:D7:FC:8F:92:03:AC:B9:20:D1:17:0B:49:4A:16:48:0E
    Signature Algorithm: sha256WithRSAEncryption
    Signature Value:
        cb:98:e4:11:12:c3:8b:2a:1d:74:7a:67:5f:21:54:a1:25:0b:
        49:d6:14:7e:bb:bf:fd:e8:3a:c1:fb:76:55:5f:2c:f8:d9:1b:
        67:7a:df:97:54:e0:b8:85:3f:0d:8a:50:4e:22:c6:6d:3b:97:
        39:83:24:26:d0:9e:ef:c3:3e:e5:c9:b7:8c:ac:bf:41:a9:77:
        74:ad:a1:0a:90:06:61:b0:b4:45:ca:87:af:7d:2b:fe:af:d4:
        e1:1f:a1:d0:64:88:c4:ec:7a:90:37:7e:4c:8c:0a:d7:53:98:
        fa:bd:6f:d0:5c:e7:4e:77:42:fa:61:da:52:fb:97:94:35:7d:
        9a:8f:94:7d:bb:bc:04:f9:2c:e3:0b:47:b1:0b:0f:62:33:14:
        12:93:35:62:a3:2c:76:42:07:ee:bc:8f:59:23:14:9c:65:8d:
        9c:79:d2:2e:a2:41:de:8c:3e:0e:75:d5:ae:84:54:a4:65:4c:
        92:00:ed:8c:ed:73:bd:bd:00:c1:62:37:c1:be:c0:dd:54:05:
        41:89:20:6d:a6:a8:b4:4c:18:d0:a1:dc:3e:7f:16:71:a7:d0:
        9f:e4:f4:e1:7c:06:7e:6f:f5:f1:09:7b:92:30:cc:fa:a7:08:
        32:f7:e7:1f:16:f7:c0:99:5e:52:48:6b:fb:c8:7b:86:68:58:
        d3:b7:60:a4
-----BEGIN CERTIFICATE-----
MIIC7zCCAdegAwIBAgIULgrT3hqlojuFzw00fAKWyQO/0lYwDQYJKoZIhvcNAQEL
BQAwFDESMBAGA1UEAwwJbG9jYWxob3N0MCAXDTI0MDUyMTE0MzMyNVoYDzIxMjQw
NDI3MTQzMzI1WjAUMRIwEAYDVQQDDAlsb2NhbGhvc3QwggEiMA0GCSqGSIb3DQEB
AQUAA4IBDwAwggEKAoIBAQDQ1xV9WAl8uE+63O2OOwmYbXeJ7H9+NR3CClmULT9n
955hrQwjIojcLfFFsBJ4zC3dTwKXPHFWTrrjL4LyarXbPbRBywMpSLaja0X/ooun
rd5PEmocEw41scITOwr8eVJh1lvOL7kJHKFDK8e8Lo31VOIqMbM7l5w5lIUWhArC
cqiD5L98xFARSmb2ffb+0/44SAo5mz//ln+a49DLYoS3DHjgX6fOEceVuLy4W6Nd
AIgbBtMEog8Q9RZELe47SdDCrrHDS0jYcTeAahhMDh8OQLR3X7Uins4lsKUpB32c
1xYS0qKxljHFZbvwaYw5RXgRS01aKDcTv5BPNWvBQJPNAgMBAAGjNzA1MBQGA1Ud
EQQNMAuCCWxvY2FsaG9zdDAdBgNVHQ4EFgQUrawrm9f8j5IDrLkg0RcLSUoWSA4w
DQYJKoZIhvcNAQELBQADggEBAMuY5BESw4sqHXR6Z18hVKElC0nWFH67v/3oOsH7
dlVfLPjZG2d635dU4LiFPw2KUE4ixm07lzmDJCbQnu/DPuXJt4ysv0Gpd3StoQqQ
BmGwtEXKh699K/6v1OEfodBkiMTsepA3fkyMCtdTmPq9b9Bc5053Qvph2lL7l5Q1
fZqPlH27vAT5LOMLR7ELD2IzFBKTNWKjLHZCB+68j1kjFJxljZx50i6iQd6MPg51
1a6EVKRlTJIA7Yztc729AMFiN8G+wN1UBUGJIG2mqLRMGNCh3D5/FnGn0J/k9OF8
Bn5v9fEJe5IwzPqnCDL35x8W98CZXlJIa/vIe4ZoWNO3YKQ=
-----END CERTIFICATE-----
