Certificate:
    Data:
        Version: 3 (0x2)
        Serial Number:
            63:d7:28:40:83:dc:ec:99:f3:82:ee:03:51:53:11:36:cb:be:cd:96
        Signature Algorithm: sha256WithRSAEncryption
        Issuer: CN=localhost
        Validity
            Not Before: May 21 14:16:35 2024 GMT
            Not After : Apr 27 14:16:35 2124 GMT
        Subject: CN=localhost
        Subject Public Key Info:
            Public Key Algorithm: rsaEncryption
                Public-Key: (2048 bit)
                Modulus:
                    00:a6:03:f4:64:ff:b4:88:1b:8a:51:87:6d:c9:28:
                    20:1e:43:bb:3c:1c:9d:82:8b:ba:e0:df:ec:52:54:
                    0e:f1:86:6e:f5:e1:16:7b:8e:36:4a:2f:a7:0b:20:
                    9f:0f:71:35:3c:bf:72:cc:ec:19:79:a2:3d:89:de:
                    84:33:d6:df:71:0a:2d:a8:d9:d9:8b:a3:9e:9d:34:
                    09:a9:d3:dd:46:3d:d6:da:58:14:ba:49:da:c2:1a:
                    0d:bd:21:79:e2:b6:e6:b8:6f:19:06:95:85:15:56:
                    60:c6:68:e5:62:1a:64:a0:c9:cc:11:75:17:cd:3f:
                    6e:e8:1e:c6:72:64:49:70:73:dd:08:e2:d3:24:b9:
                    87:54:7d:c7:b3:4e:75:fa:0a:e0:d7:05:66:c8:6c:
                    49:e8:ad:44:7a:db:28:77:44:39:2e:63:33:37:84:
                    fb:2b:37:ff:43:5d:bc:00:6e:33:79:45:31:c9:11:
                    b9:a5:6f:3f:44:f6:4c:25:99:69:5b:29:12:be:b5:
                    86:b6:40:5d:5c:39:81:1f:dc:ed:67:51:e9:6b:3c:
                    8a:ff:31:78:9e:87:f9:89:94:2e:a9:54:89:e5:14:
                    54:5a:36:ef:b7:93:47:d0:c0:04:ea:9f:ec:d3:3b:
                    33:07:6e:87:b3:3e:f0:e5:61:5d:f4:7e:a6:a6:d1:
                    9e:9b
                Exponent: 65537 (0x10001)
        X509v3 extensions:
            X509v3 Subject Alternative Name: 
                DNS:localhost
            X509v3 Subject Key Identifier: 
                8B:7D:14:16:A2:60:83:A3:DC:F2:43:0C:01:9B:B1:74:CC:07:30:C1
    Signature Algorithm: sha256WithRSAEncryption
    Signature Value:
        2b:8b:48:9e:11:88:15:f0:8b:31:22:a3:5c:f9:df:43:f3:79:
        88:86:d8:10:b2:a7:d1:e4:dc:b9:f3:21:54:fb:8f:61:89:4a:
        e8:93:b2:14:85:0a:e1:54:06:5b:a5:ef:ae:24:79:22:97:7a:
        da:f4:53:37:36:47:53:fa:bd:e6:ac:99:c4:57:f7:fd:61:23:
        60:ed:9d:7e:86:6c:93:dd:2e:46:f6:83:a3:8a:1b:f7:04:e2:
        28:39:cd:53:47:d4:61:fd:c1:77:7b:c2:ae:5c:36:94:26:e8:
        94:e5:f5:f9:a5:c1:79:af:a3:be:be:24:9b:9d:b3:01:18:af:
        ec:6b:8e:35:e0:25:d2:2f:78:6e:e0:6c:5d:a2:87:d5:88:39:
        39:47:b3:3b:74:4d:7e:1c:bc:32:f9:3b:4e:ea:b0:df:78:d6:
        1c:76:02:29:8f:6b:17:e1:6e:f4:8d:45:18:fc:1c:82:5c:81:
        da:8a:c3:88:e0:dd:53:46:f0:15:5d:b3:89:30:86:cc:47:48:
        8f:39:ae:52:74:fa:b2:96:2d:45:7f:46:8b:c4:93:73:9a:79:
        5b:96:a9:69:2c:57:6b:99:fb:29:0e:ae:3b:26:0b:a3:da:74:
        c3:5e:4f:ac:21:71:5c:a9:b3:65:11:f6:19:f2:b0:5f:06:f9:
        55:87:cb:f1
-----BEGIN CERTIFICATE-----
MIIC7zCCAdegAwIBAgIUY9coQIPc7Jnzgu4DUVMRNsu+zZYwDQYJKoZIhvcNAQEL
BQAwFDESMBAGA1UEAwwJbG9jYWxob3N0MCAXDTI0MDUyMTE0MTYzNVoYDzIxMjQw
NDI3MTQxNjM1WjAUMRIwEAYDVQQDDAlsb2NhbGhvc3QwggEiMA0GCSqGSIb3DQEB
AQUAA4IBDwAwggEKAoIBAQCmA/Rk/7SIG4pRh23JKCAeQ7s8HJ2Ci7rg3+xSVA7x
hm714RZ7jjZKL6cLIJ8PcTU8v3LM7Bl5oj2J3oQz1t9xCi2o2dmLo56dNAmp091G
PdbaWBS6SdrCGg29IXnitua4bxkGlYUVVmDGaOViGmSgycwRdRfNP27oHsZyZElw
c90I4tMkuYdUfcezTnX6CuDXBWbIbEnorUR62yh3RDkuYzM3hPsrN/9DXbwAbjN5
RTHJEbmlbz9E9kwlmWlbKRK+tYa2QF1cOYEf3O1nUelrPIr/MXieh/mJlC6pVInl
FFRaNu+3k0fQwATqn+zTOzMHboezPvDlYV30fqam0Z6bAgMBAAGjNzA1MBQGA1Ud
EQQNMAuCCWxvY2FsaG9zdDAdBgNVHQ4EFgQUi30UFqJgg6Pc8kMMAZuxdMwHMMEw
DQYJKoZIhvcNAQELBQADggEBACuLSJ4RiBXwizEio1z530PzeYiG2BCyp9Hk3Lnz
IVT7j2GJSuiTshSFCuFUBlul764keSKXetr0Uzc2R1P6veasmcRX9/1hI2DtnX6G
bJPdLkb2g6OKG/cE4ig5zVNH1GH9wXd7wq5cNpQm6JTl9fmlwXmvo76+JJudswEY
r+xrjjXgJdIveG7gbF2ih9WIOTlHszt0TX4cvDL5O07qsN941hx2AimPaxfhbvSN
RRj8HIJcgdqKw4jg3VNG8BVds4kwhsxHSI85rlJ0+rKWLUV/RovEk3OaeVuWqWks
V2uZ+ykOrjsmC6PadMNeT6whcVyps2UR9hnysF8G+VWHy/E=
-----END CERTIFICATE-----
