-----BEGIN PRIVATE KEY-----
MIIEuwIBADANBgkqhkiG9w0BAQEFAASCBKUwggShAgEAAoIBAQCyoLQUS/lG+239
8cgrNhs2AMRooHMKYAX8kO6vG1r0casHv6b0uuttaksuPyHvpBqOsovMmQ9BjyMq
wl80WCF7UpCIkO5BEZ8lhpWEf9EAdK8irgtHPoH53aePFuwEtPJ5k3l5tPduuZa9
Oc66Ccycrnm6D9GQNfOWz71RqB6Ry6RZlvLeUiwfVMstGlRyNuGKf2gUROEK2/AM
6gWDrY0bEDNYWZED3Fl6Hha27uc26A3kEiF0FZ+2RCGO84dQqDUjA4DbfPujN45s
3sfUadcRxX19lKefgamSRG2a8s5Q5pVfktWXurfRy9z6JmOAcnYxJjuF1gducmLz
MdF37ZXbAgMBAAECgf9B8BCJbYIXMbjohNffG5nv1VirRo8wxUFweg+hk/d/RHZd
5eE7dcRyH0qhR6y/SVSEWGRCoj1/ddcFcbqzF9VEMLYps1Y/rsGQmJ2Yy5XbFTeR
Fa4UHn7cPXYc29lD44eeWVH+G087EEcUksI86mEddUp55Fz3XvMMOKMqAWVHa8bY
gbQS1EUz7B/TRKAo/KB3uWIFoacTP/QS4DukTixnwppsAhYtMwxQ7T5qlJ+C6iEX
XuB0kvk0ialaNaqmQGGQyT94xdtsoi3+8q3R+rIsv7/sZsGvWZbtWNDA3ovWGk3m
LabmsjX1CyEyXNQHA0oL8MH96JlRZwpM9Ng3GoECgYEA2begUlXgzvQzIUJhOKtP
PdMre72eWrzo6oX4ivrT+CynHI5AKcacfAc3To1gRJ4ry+UIhL+37LGqhTwxrEHV
Ej0oCQIafhM/A/WNU3TYe+Y02NcoufW7YsvZuzxXxOI4P19pnnhhjnow0QZWdQLG
Mrw5MuYFsliVkW9bM/yuzlsCgYEA0gl98ZXmRg4qQk3kleBV7lY1LLACKEjLqeY4
b6aLhXYKQEkezFOARbP8Sp6FC/+TPeq4bcTAxTllJWzXeep5qCJbS85+C0AUtBrd
2TvsEEFiy3aa2RyeQJs+shkGlb4xV1ma2s0irarlTwbLzO0sFT4frg5ukBHLmBNs
ki4t7oECgYAYkr44rNK76RogReK9R7Cg9MWyqLtH2Iydc9OStC7akwellHSvgmhF
I3ddmV1lQUkGMWqduRnkUEVD1oBwxdlrvpVXNvKQilGRe9Sgt857ZYdPdjF1k8O7
qfCATpZFdZcNqBI+va2dLDN4VDPL7y05qr71/Lpl39O534y2uG1ugwKBgGKhMHIc
uQiWqEOAfmHe+Zs1Aj1c3XZ7UKAUytWrOINQfdnYPE0ovOh+b2++5q1Os570tOxe
40L6A8RCSyEl+UD5+TMs4UV5Lv+wShMzr1Om0LTImkhvxuSBwjwxwkTZDiR9oFk0
0R8KTCoC//rYOMY06P18K3Ed2iQsouQ2KT2BAoGBAKqqS1tcejvCRMLIiuR1O2oK
PnFFaD8Q72Twxsb42IaHrr7C8CtbVjJjd075Z2nR+9GBVFvtnrA1CimKmBrNgndH
ZfOaWZTLeg28Qd2HFpmmTM7nC9CDdTbfTmBhOORLzLIETUL6Wwa5DNtq7gTz+ET4
s91ExdrIAv5Lyl8y9fgO
-----END PRIVATE KEY-----
Certificate:
    Data:
        Version: 3 (0x2)
        Serial Number:
            41:1a:29:8f:f0:9c:57:21:a3:b1:db:e1:f5:d3:40:f5:ab:a8:00:be
        Signature Algorithm: sha256WithRSAEncryption
        Issuer: CN=localhost
        Validity
            Not Before: May 21 14:22:45 2024 GMT
            Not After : Apr 27 14:22:45 2124 GMT
        Subject: CN=localhost
        Subject Public Key Info:
            Public Key Algorithm: rsaEncryption
                Public-Key: (2048 bit)
                Modulus:
                    00:b2:a0:b4:14:4b:f9:46:fb:6d:fd:f1:c8:2b:36:
                    1b:36:00:c4:68:a0:73:0a:60:05:fc:90:ee:af:1b:
                    5a:f4:71:ab:07:bf:a6:f4:ba:eb:6d:6a:4b:2e:3f:
                    21:ef:a4:1a:8e:b2:8b:cc:99:0f:41:8f:23:2a:c2:
                    5f:34:58:21:7b:52:90:88:90:ee:41:11:9f:25:86:
                    95:84:7f:d1:00:74:af:22:ae:0b:47:3e:81:f9:dd:
                    a7:8f:16:ec:04:b4:f2:79:93:79:79:b4:f7:6e:b9:
                    96:bd:39:ce:ba:09:cc:9c:ae:79:ba:0f:d1:90:35:
                    f3:96:cf:bd:51:a8:1e:91:cb:a4:59:96:f2:de:52:
                    2c:1f:54:cb:2d:1a:54:72:36:e1:8a:7f:68:14:44:
                    e1:0a:db:f0:0c:ea:05:83:ad:8d:1b:10:33:58:59:
                    91:03:dc:59:7a:1e:16:b6:ee:e7:36:e8:0d:e4:12:
                    21:74:15:9f:b6:44:21:8e:f3:87:50:a8:35:23:03:
                    80:db:7c:fb:a3:37:8e:6c:de:c7:d4:69:d7:11:c5:
                    7d:7d:94:a7:9f:81:a9:92:44:6d:9a:f2:ce:50:e6:
                    95:5f:92:d5:97:ba:b7:d1:cb:dc:fa:26:63:80:72:
                    76:31:26:3b:85:d6:07:6e:72:62:f3:31:d1:77:ed:
                    95:db
                Exponent: 65537 (0x10001)
        X509v3 extensions:
            X509v3 Subject Alternative Name: 
                DNS:localhost
            X509v3 Subject Key Identifier: 
                77:ED:CD:A7:CE:35:30:D9:00:57:2D:7D:72:30:4E:1E:2D:15:B4:75
    Signature Algorithm: sha256WithRSAEncryption
    Signature Value:
        0b:c2:ef:76:cd:21:5b:4b:7a:ec:4b:1d:96:d3:0a:45:6d:e5:
        e5:16:c2:96:73:96:17:4e:fe:55:21:5f:8f:e1:32:ef:e5:68:
        87:0c:86:86:fd:7c:84:ec:23:0c:ee:52:56:19:26:ab:19:fa:
        69:4f:92:b7:45:1a:b9:a0:14:91:83:f4:03:ef:47:c7:90:36:
        23:07:cf:e1:5b:f5:cd:b7:46:b0:cf:82:4e:56:8e:b4:b6:26:
        0f:20:b1:31:b2:82:b3:12:32:79:e9:88:34:0f:e3:54:af:d5:
        fd:fb:6a:cd:a8:59:fa:4e:5e:b2:18:64:a9:ac:17:bc:c5:82:
        aa:50:a4:04:88:f2:64:4b:75:ba:50:58:47:35:46:90:6d:fe:
        5a:83:42:18:35:93:b9:9d:9a:e8:88:ff:93:d5:61:f0:fc:58:
        fb:70:32:df:f9:31:73:e6:44:6a:47:57:b5:b3:da:5f:cb:b5:
        70:56:2a:e8:aa:3e:03:98:ed:e6:e7:1e:f3:8f:df:a4:53:82:
        da:35:5b:4c:2d:56:50:8a:b8:12:d9:98:58:d2:de:30:09:00:
        ba:f2:66:97:ee:50:9b:90:de:c7:b1:f4:dc:b9:7e:ed:4c:64:
        47:bc:90:04:15:d0:0b:d3:b9:d0:7b:50:7c:25:c3:85:81:26:
        5e:08:88:99
-----BEGIN CERTIFICATE-----
MIIC7zCCAdegAwIBAgIUQRopj/CcVyGjsdvh9dNA9auoAL4wDQYJKoZIhvcNAQEL
BQAwFDESMBAGA1UEAwwJbG9jYWxob3N0MCAXDTI0MDUyMTE0MjI0NVoYDzIxMjQw
NDI3MTQyMjQ1WjAUMRIwEAYDVQQDDAlsb2NhbGhvc3QwggEiMA0GCSqGSIb3DQEB
AQUAA4IBDwAwggEKAoIBAQCyoLQUS/lG+2398cgrNhs2AMRooHMKYAX8kO6vG1r0
casHv6b0uuttaksuPyHvpBqOsovMmQ9BjyMqwl80WCF7UpCIkO5BEZ8lhpWEf9EA
dK8irgtHPoH53aePFuwEtPJ5k3l5tPduuZa9Oc66Ccycrnm6D9GQNfOWz71RqB6R
y6RZlvLeUiwfVMstGlRyNuGKf2gUROEK2/AM6gWDrY0bEDNYWZED3Fl6Hha27uc2
6A3kEiF0FZ+2RCGO84dQqDUjA4DbfPujN45s3sfUadcRxX19lKefgamSRG2a8s5Q
5pVfktWXurfRy9z6JmOAcnYxJjuF1gducmLzMdF37ZXbAgMBAAGjNzA1MBQGA1Ud
EQQNMAuCCWxvY2FsaG9zdDAdBgNVHQ4EFgQUd+3Np841MNkAVy19cjBOHi0VtHUw
DQYJKoZIhvcNAQELBQADggEBAAvC73bNIVtLeuxLHZbTCkVt5eUWwpZzlhdO/lUh
X4/hMu/laIcMhob9fITsIwzuUlYZJqsZ+mlPkrdFGrmgFJGD9APvR8eQNiMHz+Fb
9c23RrDPgk5WjrS2Jg8gsTGygrMSMnnpiDQP41Sv1f37as2oWfpOXrIYZKmsF7zF
gqpQpASI8mRLdbpQWEc1RpBt/lqDQhg1k7mdmuiI/5PVYfD8WPtwMt/5MXPmRGpH
V7Wz2l/LtXBWKuiqPgOY7ebnHvOP36RTgto1W0wtVlCKuBLZmFjS3jAJALryZpfu
UJuQ3sex9Ny5fu1MZEe8kAQV0AvTudB7UHwlw4WBJl4IiJk=
-----END CERTIFICATE-----
